ccopy_reg
_reconstructor
p1
(ccompanies
Companies
p2
c__builtin__
object
p3
NtRp4
(dp5
S'companies'
p6
(lp7
g1
(ccompany
Company
p8
g3
NtRp9
(dp10
S'country'
p11
S'Ukraine'
p12
sS'id'
p13
I0
sS'name'
p14
S'ZAZ'
p15
sbag1
(g8
g3
NtRp16
(dp17
g11
S'Germany'
p18
sg13
I1
sg14
S'BMW'
p19
sbag1
(g8
g3
NtRp20
(dp21
g11
S'Germany'
p22
sg13
I3
sg14
S'Mercedess'
p23
sbag1
(g8
g3
NtRp24
(dp25
g11
S'Germany'
p26
sg13
I2
sg14
S'Volkswagen'
p27
sbasb.