ccopy_reg
_reconstructor
p1
(cmodels
Models
p2
c__builtin__
object
p3
NtRp4
(dp5
S'models'
p6
(lp7
g1
(cmodel
Model
p8
g3
NtRp9
(dp10
S'name'
p11
S'Forza'
p12
sS'consumption'
p13
I100
sS'company'
p14
g1
(ccompany
Company
p15
g3
NtRp16
(dp17
S'country'
p18
S'Ukraine'
p19
sS'id'
p20
I0
sg11
S'ZAZ'
p21
sbsS'mid'
p22
I0
sS'evolume'
p23
F0.10000000000000001
sS'speed'
p24
I15
sbasb.